target datalayout = "e-m:e-p270:32:32-p271:32:32-p272:64:64-i64:64-i128:128-f80:128-n8:16:32:64-S128"
target triple = "x86_64-pc-linux-gnu"

%struct.Vec_Int_t_ = type { i32, i32, ptr }
%struct.Abs_Par_t_ = type { i32, i32, i32, i32, i32, i32, i32, i32, i32, i32, i32, i32, i32, i32, i32, i32, i32, i32, i32, i32, i32, i32, i32, i32, i32, ptr, i32, i32, i32, i32, i32, i32 }
%struct.Gia_Man_t_ = type { ptr, ptr, i32, i32, i32, i32, ptr, ptr, i32, i32, i32, ptr, ptr, %struct.Vec_Int_t_, %struct.Vec_Int_t_, i32, i32, i32, %struct.Vec_Int_t_, ptr, ptr, ptr, i32, i32, i32, i32, ptr, ptr, ptr, ptr, ptr, i32, i32, ptr, i32, ptr, ptr, ptr, ptr, ptr, ptr, ptr, ptr, ptr, ptr, ptr, ptr, ptr, ptr, ptr, ptr, ptr, ptr, %struct.Vec_Int_t_, %struct.Vec_Int_t_, ptr, ptr, ptr, ptr, ptr, ptr, ptr, ptr, ptr, ptr, ptr, ptr, ptr, ptr, ptr, ptr, ptr, ptr, ptr, ptr, ptr, i32, float, float, ptr, ptr, i32, ptr, ptr, ptr, ptr, ptr, ptr, ptr, ptr, ptr, ptr, ptr, ptr, ptr, ptr, ptr, i64, i64, ptr, ptr, i32, i32, i32, i32, i32, i32, i32, i32, i32, i32, i32, i32, ptr, ptr, ptr, ptr, ptr, ptr, ptr, ptr, i32, i32, i32, ptr, i32, i32, ptr, ptr, ptr, ptr, ptr, ptr, i32, i32, ptr, %struct.Vec_Int_t_, %struct.Vec_Int_t_, %struct.Vec_Int_t_, ptr, ptr, ptr, i32, i32, i32, i32, ptr, ptr, ptr, ptr, ptr }

; Function Attrs: nounwind uwtable
define i32 @Gia_VtaPerform(ptr noundef %0, ptr noundef %1) #0 {
  %3 = alloca i32, align 4
  %4 = alloca ptr, align 8
  %5 = alloca ptr, align 8
  %6 = alloca i32, align 4
  %7 = alloca i32, align 4
  %8 = alloca i32, align 4
  store ptr %0, ptr %4, align 8, !tbaa !67
  store ptr %1, ptr %5, align 8, !tbaa !129
  call void @llvm.lifetime.start.p0(i64 4, ptr %6) #13
  store i32 -1, ptr %6, align 4, !tbaa !8
  %9 = load ptr, ptr %4, align 8, !tbaa !67
  %10 = getelementptr inbounds nuw %struct.Gia_Man_t_, ptr %9, i32 0, i32 59
  %11 = load ptr, ptr %10, align 8, !tbaa !146
  %12 = icmp eq ptr %11, null
  br i1 %12, label %13, label %33

13:                                               ; preds = %2
  %14 = load ptr, ptr %5, align 8, !tbaa !129
  %15 = getelementptr inbounds nuw %struct.Abs_Par_t_, ptr %14, i32 0, i32 13
  %16 = load i32, ptr %15, align 4, !tbaa !207
  %17 = icmp ne i32 %16, 0
  br i1 %17, label %18, label %33

18:                                               ; preds = %13
  call void @llvm.lifetime.start.p0(i64 4, ptr %7) #13
  %19 = load ptr, ptr %5, align 8, !tbaa !129
  %20 = getelementptr inbounds nuw %struct.Abs_Par_t_, ptr %19, i32 0, i32 0
  %21 = load i32, ptr %20, align 8, !tbaa !187
  store i32 %21, ptr %7, align 4, !tbaa !8
  %22 = load ptr, ptr %5, align 8, !tbaa !129
  %23 = getelementptr inbounds nuw %struct.Abs_Par_t_, ptr %22, i32 0, i32 1
  %24 = load i32, ptr %23, align 4, !tbaa !208
  %25 = load ptr, ptr %5, align 8, !tbaa !129
  %26 = getelementptr inbounds nuw %struct.Abs_Par_t_, ptr %25, i32 0, i32 0
  store i32 %24, ptr %26, align 8, !tbaa !187
  %27 = load ptr, ptr %4, align 8, !tbaa !67
  %28 = load ptr, ptr %5, align 8, !tbaa !129
  %29 = call i32 @Gia_VtaPerformInt(ptr noundef %27, ptr noundef %28)
  store i32 %29, ptr %6, align 4, !tbaa !8
  %30 = load i32, ptr %7, align 4, !tbaa !8
  %31 = load ptr, ptr %5, align 8, !tbaa !129
  %32 = getelementptr inbounds nuw %struct.Abs_Par_t_, ptr %31, i32 0, i32 0
  store i32 %30, ptr %32, align 8, !tbaa !187
  call void @llvm.lifetime.end.p0(i64 4, ptr %7) #13
  br label %33

33:                                               ; preds = %18, %13, %2
  %34 = load i32, ptr %6, align 4, !tbaa !8
  %35 = icmp eq i32 %34, 0
  br i1 %35, label %36, label %38

36:                                               ; preds = %33
  %37 = load i32, ptr %6, align 4, !tbaa !8
  store i32 %37, ptr %3, align 4
  store i32 1, ptr %8, align 4
  br label %42

38:                                               ; preds = %33
  %39 = load ptr, ptr %4, align 8, !tbaa !67
  %40 = load ptr, ptr %5, align 8, !tbaa !129
  %41 = call i32 @Gia_VtaPerformInt(ptr noundef %39, ptr noundef %40)
  store i32 %41, ptr %3, align 4
  store i32 1, ptr %8, align 4
  br label %42

42:                                               ; preds = %38, %36
  call void @llvm.lifetime.end.p0(i64 4, ptr %6) #13
  %43 = load i32, ptr %3, align 4
  ret i32 %43
}