; Function Attrs: nounwind uwtable
define range(i32 -1, 2) i32 @Gia_VtaPerform(ptr noundef %0, ptr noundef %1) local_unnamed_addr #0 {
  %3 = getelementptr inbounds nuw i8, ptr %0, i64 456
  %4 = load ptr, ptr %3, align 8, !tbaa !148
  %5 = icmp eq ptr %4, null
  br i1 %5, label %6, label %.critedge

6:                                                ; preds = %2
  %7 = getelementptr inbounds nuw i8, ptr %1, i64 52
  %8 = load i32, ptr %7, align 4, !tbaa !201
  %.not = icmp eq i32 %8, 0
  br i1 %.not, label %.critedge, label %9

9:                                                ; preds = %6
  %10 = load i32, ptr %1, align 8, !tbaa !178
  %11 = getelementptr inbounds nuw i8, ptr %1, i64 4
  %12 = load i32, ptr %11, align 4, !tbaa !202
  store i32 %12, ptr %1, align 8, !tbaa !178
  %13 = tail call i32 @Gia_VtaPerformInt(ptr noundef nonnull %0, ptr noundef nonnull %1)
  store i32 %10, ptr %1, align 8, !tbaa !178
  %14 = icmp eq i32 %13, 0
  br i1 %14, label %16, label %.critedge

.critedge:                                        ; preds = %6, %2, %9
  %15 = tail call i32 @Gia_VtaPerformInt(ptr noundef nonnull %0, ptr noundef %1)
  br label %16

16:                                               ; preds = %9, %.critedge
  %.0 = phi i32 [ %15, %.critedge ], [ 0, %9 ]
  ret i32 %.0
}